target datalayout = "e-m:e-p270:32:32-p271:32:32-p272:64:64-i64:64-i128:128-f80:128-n8:16:32:64-S128"
target triple = "x86_64-pc-linux-gnu"

%class.hwf_manager = type { %class.mpq_manager, ptr }
%class.mpq_manager = type { %class.mpz_manager, %class.mpz, %class.mpz, %class.mpz, %class.mpz, %class.mpq, %class.mpq }
%class.mpz_manager = type { %class.small_object_allocator, %"class.std::recursive_mutex", [4 x i8], i32, %class.mpz, %class.mpz }
%class.small_object_allocator = type { [32 x ptr], [32 x ptr], i64 }
%"class.std::recursive_mutex" = type { %"class.std::__recursive_mutex_base" }
%"class.std::__recursive_mutex_base" = type { %union.pthread_mutex_t }
%union.pthread_mutex_t = type { %struct.__pthread_mutex_s }
%struct.__pthread_mutex_s = type { i32, i32, i32, i32, i32, i16, i16, %struct.__pthread_internal_list }
%struct.__pthread_internal_list = type { ptr, ptr }
%class.mpz = type { i32, i8, ptr }
%class.mpq = type { %class.mpz, %class.mpz }

; Function Attrs: mustprogress nounwind uwtable
define linkonce_odr hidden void @_ZN3mpzC2Ei(ptr noundef nonnull align 8 dereferenceable(16) %0, i32 noundef %1) unnamed_addr #5 comdat align 2 {
  %3 = alloca ptr, align 8
  %4 = alloca i32, align 4
  store ptr %0, ptr %3, align 8, !tbaa !46
  store i32 %1, ptr %4, align 4, !tbaa !18
  %5 = load ptr, ptr %3, align 8
  %6 = getelementptr inbounds nuw %class.mpz, ptr %5, i32 0, i32 0
  %7 = load i32, ptr %4, align 4, !tbaa !18
  store i32 %7, ptr %6, align 8, !tbaa !48
  %8 = getelementptr inbounds nuw %class.mpz, ptr %5, i32 0, i32 1
  %9 = load i8, ptr %8, align 4
  %10 = and i8 %9, -2
  %11 = or i8 %10, 0
  store i8 %11, ptr %8, align 4
  %12 = getelementptr inbounds nuw %class.mpz, ptr %5, i32 0, i32 1
  %13 = load i8, ptr %12, align 4
  %14 = and i8 %13, -3
  %15 = or i8 %14, 0
  store i8 %15, ptr %12, align 4
  %16 = getelementptr inbounds nuw %class.mpz, ptr %5, i32 0, i32 2
  store ptr null, ptr %16, align 8, !tbaa !49
  ret void
}

; Function Attrs: mustprogress uwtable
define linkonce_odr hidden void @_ZN3mpqC2Ev(ptr noundef nonnull align 8 dereferenceable(32) %0) unnamed_addr #4 comdat align 2 {
  %2 = alloca ptr, align 8
  store ptr %0, ptr %2, align 8, !tbaa !26
  %3 = load ptr, ptr %2, align 8
  %4 = getelementptr inbounds nuw %class.mpq, ptr %3, i32 0, i32 0
  call void @_ZN3mpzC2Ev(ptr noundef nonnull align 8 dereferenceable(16) %4)
  %5 = getelementptr inbounds nuw %class.mpq, ptr %3, i32 0, i32 1
  call void @_ZN3mpzC2Ei(ptr noundef nonnull align 8 dereferenceable(16) %5, i32 noundef 1)
  ret void
}

; Function Attrs: mustprogress nounwind uwtable
define linkonce_odr hidden void @_ZN3mpzC2Ev(ptr noundef nonnull align 8 dereferenceable(16) %0) unnamed_addr #5 comdat align 2 {
  %2 = alloca ptr, align 8
  store ptr %0, ptr %2, align 8, !tbaa !46
  %3 = load ptr, ptr %2, align 8
  %4 = getelementptr inbounds nuw %class.mpz, ptr %3, i32 0, i32 0
  store i32 0, ptr %4, align 8, !tbaa !48
  %5 = getelementptr inbounds nuw %class.mpz, ptr %3, i32 0, i32 1
  %6 = load i8, ptr %5, align 4
  %7 = and i8 %6, -2
  %8 = or i8 %7, 0
  store i8 %8, ptr %5, align 4
  %9 = getelementptr inbounds nuw %class.mpz, ptr %3, i32 0, i32 1
  %10 = load i8, ptr %9, align 4
  %11 = and i8 %10, -3
  %12 = or i8 %11, 0
  store i8 %12, ptr %9, align 4
  %13 = getelementptr inbounds nuw %class.mpz, ptr %3, i32 0, i32 2
  store ptr null, ptr %13, align 8, !tbaa !49
  ret void
}

; Function Attrs: mustprogress uwtable
define linkonce_odr hidden void @_ZN11mpq_managerILb0EEC2Ev(ptr noundef nonnull align 8 dereferenceable(728) %0) unnamed_addr #4 comdat align 2 personality ptr @__gxx_personality_v0 {
  %2 = alloca ptr, align 8
  %3 = alloca ptr, align 8
  %4 = alloca i32, align 4
  store ptr %0, ptr %2, align 8, !tbaa !10
  %5 = load ptr, ptr %2, align 8
  call void @_ZN11mpz_managerILb0EEC2Ev(ptr noundef nonnull align 8 dereferenceable(600) %5)
  %6 = getelementptr inbounds nuw %class.mpq_manager, ptr %5, i32 0, i32 1
  invoke void @_ZN3mpzC2Ev(ptr noundef nonnull align 8 dereferenceable(16) %6)
          to label %7 unwind label %18

7:                                                ; preds = %1
  %8 = getelementptr inbounds nuw %class.mpq_manager, ptr %5, i32 0, i32 2
  invoke void @_ZN3mpzC2Ev(ptr noundef nonnull align 8 dereferenceable(16) %8)
          to label %9 unwind label %18

9:                                                ; preds = %7
  %10 = getelementptr inbounds nuw %class.mpq_manager, ptr %5, i32 0, i32 3
  invoke void @_ZN3mpzC2Ev(ptr noundef nonnull align 8 dereferenceable(16) %10)
          to label %11 unwind label %18

11:                                               ; preds = %9
  %12 = getelementptr inbounds nuw %class.mpq_manager, ptr %5, i32 0, i32 4
  invoke void @_ZN3mpzC2Ev(ptr noundef nonnull align 8 dereferenceable(16) %12)
          to label %13 unwind label %18

13:                                               ; preds = %11
  %14 = getelementptr inbounds nuw %class.mpq_manager, ptr %5, i32 0, i32 5
  invoke void @_ZN3mpqC2Ev(ptr noundef nonnull align 8 dereferenceable(32) %14)
          to label %15 unwind label %18

15:                                               ; preds = %13
  %16 = getelementptr inbounds nuw %class.mpq_manager, ptr %5, i32 0, i32 6
  invoke void @_ZN3mpqC2Ev(ptr noundef nonnull align 8 dereferenceable(32) %16)
          to label %17 unwind label %18

17:                                               ; preds = %15
  ret void

18:                                               ; preds = %15, %13, %11, %9, %7, %1
  %19 = landingpad { ptr, i32 }
          cleanup
  %20 = extractvalue { ptr, i32 } %19, 0
  store ptr %20, ptr %3, align 8
  %21 = extractvalue { ptr, i32 } %19, 1
  store i32 %21, ptr %4, align 4
  call void @_ZN11mpz_managerILb0EED2Ev(ptr noundef nonnull align 8 dereferenceable(600) %5) #3
  br label %22

22:                                               ; preds = %18
  %23 = load ptr, ptr %3, align 8
  %24 = load i32, ptr %4, align 4
  %25 = insertvalue { ptr, i32 } poison, ptr %23, 0
  %26 = insertvalue { ptr, i32 } %25, i32 %24, 1
  resume { ptr, i32 } %26
}

; Function Attrs: mustprogress uwtable
define hidden void @_ZN11hwf_managerC2Ev(ptr noundef nonnull align 8 dereferenceable(736) %0) unnamed_addr #4 align 2 {
  %2 = alloca ptr, align 8
  store ptr %0, ptr %2, align 8, !tbaa !3
  %3 = load ptr, ptr %2, align 8
  %4 = getelementptr inbounds nuw %class.hwf_manager, ptr %3, i32 0, i32 0
  call void @_ZN11mpq_managerILb0EEC2Ev(ptr noundef nonnull align 8 dereferenceable(728) %4)
  %5 = getelementptr inbounds nuw %class.hwf_manager, ptr %3, i32 0, i32 1
  %6 = getelementptr inbounds nuw %class.hwf_manager, ptr %3, i32 0, i32 0
  store ptr %6, ptr %5, align 8, !tbaa !8
  ret void
}