; Function Attrs: mustprogress uwtable
define hidden void @_ZN11hwf_managerC2Ev(ptr noundef nonnull align 8 dereferenceable(736) %0) unnamed_addr #3 align 2 personality ptr @__gxx_personality_v0 {
  tail call void @_ZN11mpz_managerILb0EEC2Ev(ptr noundef nonnull align 8 dereferenceable(728) %0)
  %2 = getelementptr inbounds nuw i8, ptr %0, i64 600
  store i32 0, ptr %2, align 8, !tbaa !3
  %3 = getelementptr inbounds nuw i8, ptr %0, i64 604
  %4 = load i8, ptr %3, align 4
  %5 = and i8 %4, -4
  store i8 %5, ptr %3, align 4
  %6 = getelementptr inbounds nuw i8, ptr %0, i64 608
  store ptr null, ptr %6, align 8, !tbaa !10
  %7 = getelementptr inbounds nuw i8, ptr %0, i64 616
  store i32 0, ptr %7, align 8, !tbaa !3
  %8 = getelementptr inbounds nuw i8, ptr %0, i64 620
  %9 = load i8, ptr %8, align 4
  %10 = and i8 %9, -4
  store i8 %10, ptr %8, align 4
  %11 = getelementptr inbounds nuw i8, ptr %0, i64 624
  store ptr null, ptr %11, align 8, !tbaa !10
  %12 = getelementptr inbounds nuw i8, ptr %0, i64 632
  store i32 0, ptr %12, align 8, !tbaa !3
  %13 = getelementptr inbounds nuw i8, ptr %0, i64 636
  %14 = load i8, ptr %13, align 4
  %15 = and i8 %14, -4
  store i8 %15, ptr %13, align 4
  %16 = getelementptr inbounds nuw i8, ptr %0, i64 640
  store ptr null, ptr %16, align 8, !tbaa !10
  %17 = getelementptr inbounds nuw i8, ptr %0, i64 648
  store i32 0, ptr %17, align 8, !tbaa !3
  %18 = getelementptr inbounds nuw i8, ptr %0, i64 652
  %19 = load i8, ptr %18, align 4
  %20 = and i8 %19, -4
  store i8 %20, ptr %18, align 4
  %21 = getelementptr inbounds nuw i8, ptr %0, i64 656
  store ptr null, ptr %21, align 8, !tbaa !10
  %22 = getelementptr inbounds nuw i8, ptr %0, i64 664
  store i32 0, ptr %22, align 8, !tbaa !3
  %23 = getelementptr inbounds nuw i8, ptr %0, i64 668
  %24 = load i8, ptr %23, align 4
  %25 = and i8 %24, -4
  store i8 %25, ptr %23, align 4
  %26 = getelementptr inbounds nuw i8, ptr %0, i64 672
  store ptr null, ptr %26, align 8, !tbaa !10
  %27 = getelementptr inbounds nuw i8, ptr %0, i64 680
  store i32 1, ptr %27, align 8, !tbaa !3
  %28 = getelementptr inbounds nuw i8, ptr %0, i64 684
  %29 = load i8, ptr %28, align 4
  %30 = and i8 %29, -4
  store i8 %30, ptr %28, align 4
  %31 = getelementptr inbounds nuw i8, ptr %0, i64 688
  store ptr null, ptr %31, align 8, !tbaa !10
  %32 = getelementptr inbounds nuw i8, ptr %0, i64 696
  store i32 0, ptr %32, align 8, !tbaa !3
  %33 = getelementptr inbounds nuw i8, ptr %0, i64 700
  %34 = load i8, ptr %33, align 4
  %35 = and i8 %34, -4
  store i8 %35, ptr %33, align 4
  %36 = getelementptr inbounds nuw i8, ptr %0, i64 704
  store ptr null, ptr %36, align 8, !tbaa !10
  %37 = getelementptr inbounds nuw i8, ptr %0, i64 712
  store i32 1, ptr %37, align 8, !tbaa !3
  %38 = getelementptr inbounds nuw i8, ptr %0, i64 716
  %39 = load i8, ptr %38, align 4
  %40 = and i8 %39, -4
  store i8 %40, ptr %38, align 4
  %41 = getelementptr inbounds nuw i8, ptr %0, i64 720
  store ptr null, ptr %41, align 8, !tbaa !10
  %42 = getelementptr inbounds nuw i8, ptr %0, i64 728
  store ptr %0, ptr %42, align 8, !tbaa !11
  ret void
}